; Function Attrs: mustprogress uwtable
define void @_ZN8proxygen11SessionPool14closeWithResetEv(ptr noundef nonnull readonly align 8 dereferenceable(136) %this) local_unnamed_addr #3 align 2 personality ptr @__gxx_personality_v0 {
entry:
  %m_header.i27.i = getelementptr inbounds i8, ptr %this, i64 48
  %0 = load ptr, ptr %m_header.i27.i, align 8
  %tobool.not.i2.i = icmp eq ptr %0, null
  %cmp.i3.i = icmp eq ptr %0, %m_header.i27.i
  %1 = or i1 %tobool.not.i2.i, %cmp.i3.i
  br i1 %1, label %_ZN8proxygen11SessionPool25closeSessionListWithResetERN5boost9intrusive4listINS_13SessionHolderEJNS2_11member_hookIS4_NS2_16list_member_hookIJNS2_9link_modeILNS2_14link_mode_typeE1EEEEEEXadL_ZNS4_8listHookEEEEENS2_18constant_time_sizeILb1EEEEEE.exit, label %while.body.lr.ph.i

while.body.lr.ph.i:                               ; preds = %entry
  %prev_.i.i = getelementptr inbounds i8, ptr %this, i64 56
  br label %while.body.i

while.body.i:                                     ; preds = %while.body.i, %while.body.lr.ph.i
  %2 = load ptr, ptr %prev_.i.i, align 8
  %add.ptr.i.i = getelementptr inbounds i8, ptr %2, i64 -8
  tail call void @_ZN8proxygen13SessionHolder14closeWithResetEv(ptr noundef nonnull align 8 dereferenceable(152) %add.ptr.i.i)
  %3 = load ptr, ptr %m_header.i27.i, align 8
  %tobool.not.i.i = icmp eq ptr %3, null
  %cmp.i.i = icmp eq ptr %3, %m_header.i27.i
  %4 = or i1 %tobool.not.i.i, %cmp.i.i
  br i1 %4, label %_ZN8proxygen11SessionPool25closeSessionListWithResetERN5boost9intrusive4listINS_13SessionHolderEJNS2_11member_hookIS4_NS2_16list_member_hookIJNS2_9link_modeILNS2_14link_mode_typeE1EEEEEEXadL_ZNS4_8listHookEEEEENS2_18constant_time_sizeILb1EEEEEE.exit, label %while.body.i, !llvm.loop !9

_ZN8proxygen11SessionPool25closeSessionListWithResetERN5boost9intrusive4listINS_13SessionHolderEJNS2_11member_hookIS4_NS2_16list_member_hookIJNS2_9link_modeILNS2_14link_mode_typeE1EEEEEEXadL_ZNS4_8listHookEEEEENS2_18constant_time_sizeILb1EEEEEE.exit: ; preds = %while.body.i, %entry
  %m_header.i27.i1 = getelementptr inbounds i8, ptr %this, i64 72
  %5 = load ptr, ptr %m_header.i27.i1, align 8
  %tobool.not.i2.i2 = icmp eq ptr %5, null
  %cmp.i3.i3 = icmp eq ptr %5, %m_header.i27.i1
  %6 = or i1 %tobool.not.i2.i2, %cmp.i3.i3
  br i1 %6, label %_ZN8proxygen11SessionPool25closeSessionListWithResetERN5boost9intrusive4listINS_13SessionHolderEJNS2_11member_hookIS4_NS2_16list_member_hookIJNS2_9link_modeILNS2_14link_mode_typeE1EEEEEEXadL_ZNS4_8listHookEEEEENS2_18constant_time_sizeILb1EEEEEE.exit10, label %while.body.lr.ph.i4

while.body.lr.ph.i4:                              ; preds = %_ZN8proxygen11SessionPool25closeSessionListWithResetERN5boost9intrusive4listINS_13SessionHolderEJNS2_11member_hookIS4_NS2_16list_member_hookIJNS2_9link_modeILNS2_14link_mode_typeE1EEEEEEXadL_ZNS4_8listHookEEEEENS2_18constant_time_sizeILb1EEEEEE.exit
  %prev_.i.i5 = getelementptr inbounds i8, ptr %this, i64 80
  br label %while.body.i6

while.body.i6:                                    ; preds = %while.body.i6, %while.body.lr.ph.i4
  %7 = load ptr, ptr %prev_.i.i5, align 8
  %add.ptr.i.i7 = getelementptr inbounds i8, ptr %7, i64 -8
  tail call void @_ZN8proxygen13SessionHolder14closeWithResetEv(ptr noundef nonnull align 8 dereferenceable(152) %add.ptr.i.i7)
  %8 = load ptr, ptr %m_header.i27.i1, align 8
  %tobool.not.i.i8 = icmp eq ptr %8, null
  %cmp.i.i9 = icmp eq ptr %8, %m_header.i27.i1
  %9 = or i1 %tobool.not.i.i8, %cmp.i.i9
  br i1 %9, label %_ZN8proxygen11SessionPool25closeSessionListWithResetERN5boost9intrusive4listINS_13SessionHolderEJNS2_11member_hookIS4_NS2_16list_member_hookIJNS2_9link_modeILNS2_14link_mode_typeE1EEEEEEXadL_ZNS4_8listHookEEEEENS2_18constant_time_sizeILb1EEEEEE.exit10, label %while.body.i6, !llvm.loop !9

_ZN8proxygen11SessionPool25closeSessionListWithResetERN5boost9intrusive4listINS_13SessionHolderEJNS2_11member_hookIS4_NS2_16list_member_hookIJNS2_9link_modeILNS2_14link_mode_typeE1EEEEEEXadL_ZNS4_8listHookEEEEENS2_18constant_time_sizeILb1EEEEEE.exit10: ; preds = %while.body.i6, %_ZN8proxygen11SessionPool25closeSessionListWithResetERN5boost9intrusive4listINS_13SessionHolderEJNS2_11member_hookIS4_NS2_16list_member_hookIJNS2_9link_modeILNS2_14link_mode_typeE1EEEEEEXadL_ZNS4_8listHookEEEEENS2_18constant_time_sizeILb1EEEEEE.exit
  %m_header.i27.i11 = getelementptr inbounds i8, ptr %this, i64 96
  %10 = load ptr, ptr %m_header.i27.i11, align 8
  %tobool.not.i2.i12 = icmp eq ptr %10, null
  %cmp.i3.i13 = icmp eq ptr %10, %m_header.i27.i11
  %11 = or i1 %tobool.not.i2.i12, %cmp.i3.i13
  br i1 %11, label %_ZN8proxygen11SessionPool25closeSessionListWithResetERN5boost9intrusive4listINS_13SessionHolderEJNS2_11member_hookIS4_NS2_16list_member_hookIJNS2_9link_modeILNS2_14link_mode_typeE1EEEEEEXadL_ZNS4_8listHookEEEEENS2_18constant_time_sizeILb1EEEEEE.exit20, label %while.body.lr.ph.i14

while.body.lr.ph.i14:                             ; preds = %_ZN8proxygen11SessionPool25closeSessionListWithResetERN5boost9intrusive4listINS_13SessionHolderEJNS2_11member_hookIS4_NS2_16list_member_hookIJNS2_9link_modeILNS2_14link_mode_typeE1EEEEEEXadL_ZNS4_8listHookEEEEENS2_18constant_time_sizeILb1EEEEEE.exit10
  %prev_.i.i15 = getelementptr inbounds i8, ptr %this, i64 104
  br label %while.body.i16

while.body.i16:                                   ; preds = %while.body.i16, %while.body.lr.ph.i14
  %12 = load ptr, ptr %prev_.i.i15, align 8
  %add.ptr.i.i17 = getelementptr inbounds i8, ptr %12, i64 -8
  tail call void @_ZN8proxygen13SessionHolder14closeWithResetEv(ptr noundef nonnull align 8 dereferenceable(152) %add.ptr.i.i17)
  %13 = load ptr, ptr %m_header.i27.i11, align 8
  %tobool.not.i.i18 = icmp eq ptr %13, null
  %cmp.i.i19 = icmp eq ptr %13, %m_header.i27.i11
  %14 = or i1 %tobool.not.i.i18, %cmp.i.i19
  br i1 %14, label %_ZN8proxygen11SessionPool25closeSessionListWithResetERN5boost9intrusive4listINS_13SessionHolderEJNS2_11member_hookIS4_NS2_16list_member_hookIJNS2_9link_modeILNS2_14link_mode_typeE1EEEEEEXadL_ZNS4_8listHookEEEEENS2_18constant_time_sizeILb1EEEEEE.exit20, label %while.body.i16, !llvm.loop !9

_ZN8proxygen11SessionPool25closeSessionListWithResetERN5boost9intrusive4listINS_13SessionHolderEJNS2_11member_hookIS4_NS2_16list_member_hookIJNS2_9link_modeILNS2_14link_mode_typeE1EEEEEEXadL_ZNS4_8listHookEEEEENS2_18constant_time_sizeILb1EEEEEE.exit20: ; preds = %while.body.i16, %_ZN8proxygen11SessionPool25closeSessionListWithResetERN5boost9intrusive4listINS_13SessionHolderEJNS2_11member_hookIS4_NS2_16list_member_hookIJNS2_9link_modeILNS2_14link_mode_typeE1EEEEEEXadL_ZNS4_8listHookEEEEENS2_18constant_time_sizeILb1EEEEEE.exit10
  ret void
}